target datalayout = "e-m:e-p270:32:32-p271:32:32-p272:64:64-i64:64-i128:128-f80:128-n8:16:32:64-S128"
target triple = "x86_64-pc-linux-gnu"

%struct.mac_lte_info = type { i8, i8, i8, i16, i16, i16, i16, i8, i8, i16, i8, i16, i8, i8, i8, i8, i8, i8, i32, i32, i32, i32, i32, i8, %union.anon.2, i32, i8, i8, i16, [20 x i16], [20 x i16] }
%union.anon.2 = type { %struct.mac_lte_dl_phy_info }
%struct.mac_lte_dl_phy_info = type { i8, i8, i8, i8, i8, i8, i8, i8, i8, i8 }

@mac_lte_handle = internal global ptr null, align 8
@.str.417 = private unnamed_addr constant [4 x i8] c">> \00", align 1
@.str.418 = private unnamed_addr constant [81 x i8] c">> RACH Preamble Request [CarrierId=%u] [LTE UE = %u] [RAPID = %u] [Attempt = %u\00", align 1
@.str.419 = private unnamed_addr constant [58 x i8] c">> Schedule Requests (%u)  [CarrierId=%u][UE=%u][RNTI=%u]\00", align 1
@.str.420 = private unnamed_addr constant [3 x i8] c"] \00", align 1
@.str.421 = private unnamed_addr constant [17 x i8] c"[UE=%u][RNTI=%u]\00", align 1
@.str.422 = private unnamed_addr constant [60 x i8] c">> INFO (inst %u) MAC:    [UE = %u]    SR failed (CRNTI=%u)\00", align 1

; Function Attrs: null_pointer_is_valid sspstrong uwtable
define internal void @check_for_oob_mac_lte_events(ptr noundef %0, ptr noundef %1, ptr noundef %2, ptr noundef %3) #0 {
  %5 = alloca ptr, align 8
  %6 = alloca ptr, align 8
  %7 = alloca ptr, align 8
  %8 = alloca ptr, align 8
  %9 = alloca i32, align 4
  %10 = alloca [20 x i32], align 16
  %11 = alloca [20 x i32], align 16
  %12 = alloca i32, align 4
  %13 = alloca i32, align 4
  %14 = alloca i32, align 4
  %15 = alloca i32, align 4
  %16 = alloca ptr, align 8
  %17 = alloca i16, align 2
  %18 = alloca i32, align 4
  %19 = alloca ptr, align 8
  store ptr %0, ptr %5, align 8
  store ptr %1, ptr %6, align 8
  store ptr %2, ptr %7, align 8
  store ptr %3, ptr %8, align 8
  call void @llvm.lifetime.start.p0(i64 4, ptr %9) #12
  call void @llvm.lifetime.start.p0(i64 80, ptr %10) #12
  call void @llvm.lifetime.start.p0(i64 80, ptr %11) #12
  call void @llvm.lifetime.start.p0(i64 4, ptr %12) #12
  call void @llvm.lifetime.start.p0(i64 4, ptr %13) #12
  call void @llvm.lifetime.start.p0(i64 4, ptr %14) #12
  call void @llvm.lifetime.start.p0(i64 4, ptr %15) #12
  call void @llvm.lifetime.start.p0(i64 8, ptr %16) #12
  call void @llvm.lifetime.start.p0(i64 2, ptr %17) #12
  %20 = load ptr, ptr %8, align 8
  %21 = call i32 @strncmp(ptr noundef %20, ptr noundef @.str.417, i64 noundef 3) #13
  %22 = icmp ne i32 %21, 0
  br i1 %22, label %23, label %24

23:                                               ; preds = %4
  store i32 1, ptr %18, align 4
  br label %181

24:                                               ; preds = %4
  %25 = load ptr, ptr %8, align 8
  %26 = getelementptr [20 x i32], ptr %10, i64 0, i64 0
  %27 = call i32 (ptr, ptr, ...) @__isoc99_sscanf(ptr noundef %25, ptr noundef @.str.418, ptr noundef %14, ptr noundef %26, ptr noundef %12, ptr noundef %13) #12
  %28 = icmp eq i32 %27, 4
  br i1 %28, label %29, label %30

29:                                               ; preds = %24
  store i32 0, ptr %15, align 4
  br label %94

30:                                               ; preds = %24
  %31 = load ptr, ptr %8, align 8
  %32 = getelementptr [20 x i32], ptr %10, i64 0, i64 0
  %33 = getelementptr [20 x i32], ptr %11, i64 0, i64 0
  %34 = call i32 (ptr, ptr, ...) @__isoc99_sscanf(ptr noundef %31, ptr noundef @.str.419, ptr noundef %9, ptr noundef %14, ptr noundef %32, ptr noundef %33) #12
  %35 = icmp eq i32 %34, 4
  br i1 %35, label %36, label %84

36:                                               ; preds = %30
  call void @llvm.lifetime.start.p0(i64 8, ptr %19) #12
  store i32 1, ptr %15, align 4
  %37 = load i32, ptr %9, align 4
  %38 = icmp ult i32 %37, 20
  br i1 %38, label %39, label %41

39:                                               ; preds = %36
  %40 = load i32, ptr %9, align 4
  br label %42

41:                                               ; preds = %36
  br label %42

42:                                               ; preds = %41, %39
  %43 = phi i32 [ %40, %39 ], [ 20, %41 ]
  store i32 %43, ptr %9, align 4
  %44 = load i32, ptr %9, align 4
  %45 = icmp ugt i32 %44, 1
  br i1 %45, label %46, label %80

46:                                               ; preds = %42
  %47 = load ptr, ptr %8, align 8
  store ptr %47, ptr %19, align 8
  store i16 1, ptr %17, align 2
  br label %48

48:                                               ; preds = %76, %46
  %49 = load i16, ptr %17, align 2
  %50 = zext i16 %49 to i32
  %51 = load i32, ptr %9, align 4
  %52 = icmp ult i32 %50, %51
  br i1 %52, label %53, label %79

53:                                               ; preds = %48
  %54 = load ptr, ptr %19, align 8
  %55 = call ptr @strstr(ptr noundef %54, ptr noundef @.str.420) #13
  store ptr %55, ptr %19, align 8
  %56 = load ptr, ptr %19, align 8
  %57 = icmp ne ptr %56, null
  br i1 %57, label %58, label %61

58:                                               ; preds = %53
  %59 = load ptr, ptr %19, align 8
  %60 = getelementptr i8, ptr %59, i64 2
  store ptr %60, ptr %19, align 8
  br label %62

61:                                               ; preds = %53
  store i32 1, ptr %18, align 4
  br label %81

62:                                               ; preds = %58
  %63 = load ptr, ptr %19, align 8
  %64 = load i16, ptr %17, align 2
  %65 = zext i16 %64 to i64
  %66 = getelementptr [20 x i32], ptr %10, i64 0, i64 %65
  %67 = load i16, ptr %17, align 2
  %68 = zext i16 %67 to i64
  %69 = getelementptr [20 x i32], ptr %11, i64 0, i64 %68
  %70 = call i32 (ptr, ptr, ...) @__isoc99_sscanf(ptr noundef %63, ptr noundef @.str.421, ptr noundef %66, ptr noundef %69) #12
  %71 = icmp ne i32 %70, 2
  br i1 %71, label %72, label %75

72:                                               ; preds = %62
  %73 = load i16, ptr %17, align 2
  %74 = zext i16 %73 to i32
  store i32 %74, ptr %9, align 4
  br label %79

75:                                               ; preds = %62
  br label %76

76:                                               ; preds = %75
  %77 = load i16, ptr %17, align 2
  %78 = add i16 %77, 1
  store i16 %78, ptr %17, align 2
  br label %48, !llvm.loop !28

79:                                               ; preds = %72, %48
  br label %80

80:                                               ; preds = %79, %42
  store i32 0, ptr %18, align 4
  br label %81

81:                                               ; preds = %80, %61
  call void @llvm.lifetime.end.p0(i64 8, ptr %19) #12
  %82 = load i32, ptr %18, align 4
  switch i32 %82, label %181 [
    i32 0, label %83
  ]

83:                                               ; preds = %81
  br label %93

84:                                               ; preds = %30
  %85 = load ptr, ptr %8, align 8
  %86 = getelementptr [20 x i32], ptr %10, i64 0, i64 0
  %87 = getelementptr [20 x i32], ptr %11, i64 0, i64 0
  %88 = call i32 (ptr, ptr, ...) @__isoc99_sscanf(ptr noundef %85, ptr noundef @.str.422, ptr noundef %14, ptr noundef %86, ptr noundef %87) #12
  %89 = icmp eq i32 %88, 3
  br i1 %89, label %90, label %91

90:                                               ; preds = %84
  store i32 2, ptr %15, align 4
  br label %92

91:                                               ; preds = %84
  store i32 1, ptr %18, align 4
  br label %181

92:                                               ; preds = %90
  br label %93

93:                                               ; preds = %92, %83
  br label %94

94:                                               ; preds = %93, %29
  %95 = call ptr @wmem_file_scope()
  %96 = call noalias ptr @wmem_alloc0(ptr noundef %95, i64 noundef 148) #14
  store ptr %96, ptr %16, align 8
  %97 = load ptr, ptr %16, align 8
  %98 = getelementptr inbounds nuw %struct.mac_lte_info, ptr %97, i32 0, i32 11
  store i16 0, ptr %98, align 2
  %99 = load i32, ptr %15, align 4
  switch i32 %99, label %166 [
    i32 0, label %100
    i32 1, label %116
    i32 2, label %153
  ]

100:                                              ; preds = %94
  %101 = getelementptr [20 x i32], ptr %10, i64 0, i64 0
  %102 = load i32, ptr %101, align 16
  %103 = trunc i32 %102 to i16
  %104 = load ptr, ptr %16, align 8
  %105 = getelementptr inbounds nuw %struct.mac_lte_info, ptr %104, i32 0, i32 4
  store i16 %103, ptr %105, align 2
  %106 = load i32, ptr %12, align 4
  %107 = trunc i32 %106 to i8
  %108 = load ptr, ptr %16, align 8
  %109 = getelementptr inbounds nuw %struct.mac_lte_info, ptr %108, i32 0, i32 26
  store i8 %107, ptr %109, align 4
  %110 = load i32, ptr %13, align 4
  %111 = trunc i32 %110 to i8
  %112 = load ptr, ptr %16, align 8
  %113 = getelementptr inbounds nuw %struct.mac_lte_info, ptr %112, i32 0, i32 27
  store i8 %111, ptr %113, align 1
  %114 = load ptr, ptr %16, align 8
  %115 = getelementptr inbounds nuw %struct.mac_lte_info, ptr %114, i32 0, i32 1
  store i8 0, ptr %115, align 1
  br label %166

116:                                              ; preds = %94
  store i16 0, ptr %17, align 2
  br label %117

117:                                              ; preds = %143, %116
  %118 = load i16, ptr %17, align 2
  %119 = zext i16 %118 to i32
  %120 = load i32, ptr %9, align 4
  %121 = icmp ult i32 %119, %120
  br i1 %121, label %122, label %146

122:                                              ; preds = %117
  %123 = load i16, ptr %17, align 2
  %124 = zext i16 %123 to i64
  %125 = getelementptr [20 x i32], ptr %10, i64 0, i64 %124
  %126 = load i32, ptr %125, align 4
  %127 = trunc i32 %126 to i16
  %128 = load ptr, ptr %16, align 8
  %129 = getelementptr inbounds nuw %struct.mac_lte_info, ptr %128, i32 0, i32 29
  %130 = load i16, ptr %17, align 2
  %131 = zext i16 %130 to i64
  %132 = getelementptr [20 x i16], ptr %129, i64 0, i64 %131
  store i16 %127, ptr %132, align 2
  %133 = load i16, ptr %17, align 2
  %134 = zext i16 %133 to i64
  %135 = getelementptr [20 x i32], ptr %11, i64 0, i64 %134
  %136 = load i32, ptr %135, align 4
  %137 = trunc i32 %136 to i16
  %138 = load ptr, ptr %16, align 8
  %139 = getelementptr inbounds nuw %struct.mac_lte_info, ptr %138, i32 0, i32 30
  %140 = load i16, ptr %17, align 2
  %141 = zext i16 %140 to i64
  %142 = getelementptr [20 x i16], ptr %139, i64 0, i64 %141
  store i16 %137, ptr %142, align 2
  br label %143

143:                                              ; preds = %122
  %144 = load i16, ptr %17, align 2
  %145 = add i16 %144, 1
  store i16 %145, ptr %17, align 2
  br label %117, !llvm.loop !29

146:                                              ; preds = %117
  %147 = load i32, ptr %9, align 4
  %148 = trunc i32 %147 to i16
  %149 = load ptr, ptr %16, align 8
  %150 = getelementptr inbounds nuw %struct.mac_lte_info, ptr %149, i32 0, i32 28
  store i16 %148, ptr %150, align 2
  %151 = load ptr, ptr %16, align 8
  %152 = getelementptr inbounds nuw %struct.mac_lte_info, ptr %151, i32 0, i32 1
  store i8 0, ptr %152, align 1
  br label %166

153:                                              ; preds = %94
  %154 = getelementptr [20 x i32], ptr %11, i64 0, i64 0
  %155 = load i32, ptr %154, align 16
  %156 = trunc i32 %155 to i16
  %157 = load ptr, ptr %16, align 8
  %158 = getelementptr inbounds nuw %struct.mac_lte_info, ptr %157, i32 0, i32 3
  store i16 %156, ptr %158, align 4
  %159 = getelementptr [20 x i32], ptr %10, i64 0, i64 0
  %160 = load i32, ptr %159, align 16
  %161 = trunc i32 %160 to i16
  %162 = load ptr, ptr %16, align 8
  %163 = getelementptr inbounds nuw %struct.mac_lte_info, ptr %162, i32 0, i32 4
  store i16 %161, ptr %163, align 2
  %164 = load ptr, ptr %16, align 8
  %165 = getelementptr inbounds nuw %struct.mac_lte_info, ptr %164, i32 0, i32 1
  store i8 1, ptr %165, align 1
  br label %166

166:                                              ; preds = %94, %153, %146, %100
  %167 = load ptr, ptr %16, align 8
  %168 = getelementptr inbounds nuw %struct.mac_lte_info, ptr %167, i32 0, i32 0
  store i8 1, ptr %168, align 4
  %169 = load ptr, ptr %16, align 8
  %170 = getelementptr inbounds nuw %struct.mac_lte_info, ptr %169, i32 0, i32 7
  store i8 0, ptr %170, align 4
  %171 = load i32, ptr %15, align 4
  %172 = load ptr, ptr %16, align 8
  %173 = getelementptr inbounds nuw %struct.mac_lte_info, ptr %172, i32 0, i32 25
  store i32 %171, ptr %173, align 4
  %174 = load ptr, ptr %5, align 8
  %175 = load ptr, ptr %16, align 8
  call void @set_mac_lte_proto_data(ptr noundef %174, ptr noundef %175)
  %176 = load ptr, ptr @mac_lte_handle, align 8
  %177 = load ptr, ptr %6, align 8
  %178 = load ptr, ptr %5, align 8
  %179 = load ptr, ptr %7, align 8
  %180 = call i32 @call_dissector_only(ptr noundef %176, ptr noundef %177, ptr noundef %178, ptr noundef %179, ptr noundef null)
  store i32 0, ptr %18, align 4
  br label %181

181:                                              ; preds = %166, %91, %81, %23
  call void @llvm.lifetime.end.p0(i64 2, ptr %17) #12
  call void @llvm.lifetime.end.p0(i64 8, ptr %16) #12
  call void @llvm.lifetime.end.p0(i64 4, ptr %15) #12
  call void @llvm.lifetime.end.p0(i64 4, ptr %14) #12
  call void @llvm.lifetime.end.p0(i64 4, ptr %13) #12
  call void @llvm.lifetime.end.p0(i64 4, ptr %12) #12
  call void @llvm.lifetime.end.p0(i64 80, ptr %11) #12
  call void @llvm.lifetime.end.p0(i64 80, ptr %10) #12
  call void @llvm.lifetime.end.p0(i64 4, ptr %9) #12
  %182 = load i32, ptr %18, align 4
  switch i32 %182, label %184 [
    i32 0, label %183
    i32 1, label %183
  ]

183:                                              ; preds = %181, %181
  ret void

184:                                              ; preds = %181
  unreachable
}