; Function Attrs: null_pointer_is_valid sspstrong uwtable
define internal fastcc void @check_for_oob_mac_lte_events(ptr noundef %0, ptr noundef %1, ptr noundef %2, ptr noundef readonly %3) unnamed_addr #0 {
sub_0:
  %4 = alloca i32, align 4
  %5 = alloca [20 x i32], align 16
  %6 = alloca [20 x i32], align 16
  %7 = alloca i32, align 4
  %8 = alloca i32, align 4
  %9 = alloca i32, align 4
  call void @llvm.lifetime.start.p0(i64 4, ptr nonnull %4) #12
  call void @llvm.lifetime.start.p0(i64 80, ptr nonnull %5) #12
  call void @llvm.lifetime.start.p0(i64 80, ptr nonnull %6) #12
  call void @llvm.lifetime.start.p0(i64 4, ptr nonnull %7) #12
  call void @llvm.lifetime.start.p0(i64 4, ptr nonnull %8) #12
  call void @llvm.lifetime.start.p0(i64 4, ptr nonnull %9) #12
  %10 = load i8, ptr %3, align 1
  %.not64 = icmp eq i8 %10, 62
  br i1 %.not64, label %sub_1, label %.critedge

sub_1:                                            ; preds = %sub_0
  %11 = getelementptr inbounds nuw i8, ptr %3, i64 1
  %12 = load i8, ptr %11, align 1
  %.not65 = icmp eq i8 %12, 62
  br i1 %.not65, label %.tail, label %.critedge

.tail:                                            ; preds = %sub_1
  %13 = getelementptr inbounds nuw i8, ptr %3, i64 2
  %14 = load i8, ptr %13, align 1
  %15 = icmp eq i8 %14, 32
  br i1 %15, label %16, label %.critedge

16:                                               ; preds = %.tail
  %17 = call i32 (ptr, ptr, ...) @__isoc99_sscanf(ptr noundef %3, ptr noundef nonnull @.str.418, ptr noundef nonnull %9, ptr noundef nonnull %5, ptr noundef nonnull %7, ptr noundef nonnull %8) #12
  %18 = icmp eq i32 %17, 4
  br i1 %18, label %49, label %19

19:                                               ; preds = %16
  %20 = call i32 (ptr, ptr, ...) @__isoc99_sscanf(ptr noundef %3, ptr noundef nonnull @.str.419, ptr noundef nonnull %4, ptr noundef nonnull %9, ptr noundef nonnull %5, ptr noundef nonnull %6) #12
  %21 = icmp eq i32 %20, 4
  br i1 %21, label %22, label %40

22:                                               ; preds = %19
  %23 = load i32, ptr %4, align 4
  %24 = call i32 @llvm.umin.i32(i32 %23, i32 20)
  store i32 %24, ptr %4, align 4
  %25 = icmp ugt i32 %23, 1
  br i1 %25, label %.lr.ph, label %.loopexit

26:                                               ; preds = %33
  %27 = add i16 %.04359, 1
  %28 = zext i16 %27 to i32
  %29 = load i32, ptr %4, align 4
  %30 = icmp ugt i32 %29, %28
  br i1 %30, label %.lr.ph, label %.loopexit, !llvm.loop !27

.lr.ph:                                           ; preds = %22, %26
  %31 = phi i32 [ %28, %26 ], [ 1, %22 ]
  %.060 = phi ptr [ %34, %26 ], [ %3, %22 ]
  %.04359 = phi i16 [ %27, %26 ], [ 1, %22 ]
  %32 = call ptr @strstr(ptr noundef %.060, ptr noundef nonnull dereferenceable(1) @.str.420) #13
  %.not48 = icmp eq ptr %32, null
  br i1 %.not48, label %.critedge, label %33

33:                                               ; preds = %.lr.ph
  %34 = getelementptr i8, ptr %32, i64 2
  %35 = zext i16 %.04359 to i64
  %36 = getelementptr [20 x i32], ptr %5, i64 0, i64 %35
  %37 = getelementptr [20 x i32], ptr %6, i64 0, i64 %35
  %38 = call i32 (ptr, ptr, ...) @__isoc99_sscanf(ptr noundef %34, ptr noundef nonnull @.str.421, ptr noundef %36, ptr noundef %37) #12
  %.not49 = icmp eq i32 %38, 2
  br i1 %.not49, label %26, label %39

39:                                               ; preds = %33
  store i32 %31, ptr %4, align 4
  br label %.loopexit

40:                                               ; preds = %19
  %41 = call i32 (ptr, ptr, ...) @__isoc99_sscanf(ptr noundef %3, ptr noundef nonnull @.str.422, ptr noundef nonnull %9, ptr noundef nonnull %5, ptr noundef nonnull %6) #12
  %42 = icmp eq i32 %41, 3
  br i1 %42, label %77, label %.critedge

.loopexit:                                        ; preds = %26, %39, %22
  %43 = call ptr @wmem_file_scope()
  %44 = call noalias dereferenceable_or_null(148) ptr @wmem_alloc0(ptr noundef %43, i64 noundef 148) #14
  %45 = getelementptr inbounds nuw i8, ptr %44, i64 18
  store i16 0, ptr %45, align 2
  %46 = load i32, ptr %4, align 4
  %.not66 = icmp eq i32 %46, 0
  br i1 %.not66, label %._crit_edge, label %.lr.ph62

.lr.ph62:                                         ; preds = %.loopexit
  %47 = getelementptr inbounds nuw i8, ptr %44, i64 68
  %48 = getelementptr inbounds nuw i8, ptr %44, i64 108
  br label %62

49:                                               ; preds = %16
  %50 = call ptr @wmem_file_scope()
  %51 = call noalias dereferenceable_or_null(148) ptr @wmem_alloc0(ptr noundef %50, i64 noundef 148) #14
  %52 = getelementptr inbounds nuw i8, ptr %51, i64 18
  store i16 0, ptr %52, align 2
  %53 = load i32, ptr %5, align 16
  %54 = trunc i32 %53 to i16
  %55 = getelementptr inbounds nuw i8, ptr %51, i64 6
  store i16 %54, ptr %55, align 2
  %56 = load i32, ptr %7, align 4
  %57 = trunc i32 %56 to i8
  %58 = getelementptr inbounds nuw i8, ptr %51, i64 64
  store i8 %57, ptr %58, align 4
  %59 = load i32, ptr %8, align 4
  %60 = trunc i32 %59 to i8
  %61 = getelementptr inbounds nuw i8, ptr %51, i64 65
  store i8 %60, ptr %61, align 1
  br label %87

62:                                               ; preds = %.lr.ph62, %62
  %.161 = phi i16 [ 0, %.lr.ph62 ], [ %72, %62 ]
  %63 = zext i16 %.161 to i64
  %64 = getelementptr [20 x i32], ptr %5, i64 0, i64 %63
  %65 = load i32, ptr %64, align 4
  %66 = trunc i32 %65 to i16
  %67 = getelementptr [20 x i16], ptr %47, i64 0, i64 %63
  store i16 %66, ptr %67, align 2
  %68 = getelementptr [20 x i32], ptr %6, i64 0, i64 %63
  %69 = load i32, ptr %68, align 4
  %70 = trunc i32 %69 to i16
  %71 = getelementptr [20 x i16], ptr %48, i64 0, i64 %63
  store i16 %70, ptr %71, align 2
  %72 = add i16 %.161, 1
  %73 = zext i16 %72 to i32
  %74 = icmp ugt i32 %46, %73
  br i1 %74, label %62, label %._crit_edge, !llvm.loop !28

._crit_edge:                                      ; preds = %62, %.loopexit
  %75 = trunc nuw i32 %46 to i16
  %76 = getelementptr inbounds nuw i8, ptr %44, i64 66
  store i16 %75, ptr %76, align 2
  br label %87

77:                                               ; preds = %40
  %78 = call ptr @wmem_file_scope()
  %79 = call noalias dereferenceable_or_null(148) ptr @wmem_alloc0(ptr noundef %78, i64 noundef 148) #14
  %80 = getelementptr inbounds nuw i8, ptr %79, i64 18
  store i16 0, ptr %80, align 2
  %81 = load i32, ptr %6, align 16
  %82 = trunc i32 %81 to i16
  %83 = getelementptr inbounds nuw i8, ptr %79, i64 4
  store i16 %82, ptr %83, align 4
  %84 = load i32, ptr %5, align 16
  %85 = trunc i32 %84 to i16
  %86 = getelementptr inbounds nuw i8, ptr %79, i64 6
  store i16 %85, ptr %86, align 2
  br label %87

87:                                               ; preds = %77, %._crit_edge, %49
  %.sink73 = phi ptr [ %79, %77 ], [ %44, %._crit_edge ], [ %51, %49 ]
  %.sink = phi i8 [ 1, %77 ], [ 0, %._crit_edge ], [ 0, %49 ]
  %.04451 = phi i32 [ 2, %77 ], [ 1, %._crit_edge ], [ 0, %49 ]
  %88 = getelementptr inbounds nuw i8, ptr %.sink73, i64 1
  store i8 %.sink, ptr %88, align 1
  store i8 1, ptr %.sink73, align 4
  %89 = getelementptr inbounds nuw i8, ptr %.sink73, i64 12
  store i8 0, ptr %89, align 4
  %90 = getelementptr inbounds nuw i8, ptr %.sink73, i64 60
  store i32 %.04451, ptr %90, align 4
  call void @set_mac_lte_proto_data(ptr noundef %0, ptr noundef %.sink73)
  %91 = load ptr, ptr @mac_lte_handle, align 8
  %92 = call i32 @call_dissector_only(ptr noundef %91, ptr noundef %1, ptr noundef %0, ptr noundef %2, ptr noundef null)
  br label %.critedge

.critedge:                                        ; preds = %.lr.ph, %sub_1, %sub_0, %40, %.tail, %87
  call void @llvm.lifetime.end.p0(i64 4, ptr nonnull %9) #12
  call void @llvm.lifetime.end.p0(i64 4, ptr nonnull %8) #12
  call void @llvm.lifetime.end.p0(i64 4, ptr nonnull %7) #12
  call void @llvm.lifetime.end.p0(i64 80, ptr nonnull %6) #12
  call void @llvm.lifetime.end.p0(i64 80, ptr nonnull %5) #12
  call void @llvm.lifetime.end.p0(i64 4, ptr nonnull %4) #12
  ret void
}